target datalayout = "e-m:e-p270:32:32-p271:32:32-p272:64:64-i64:64-i128:128-f80:128-n8:16:32:64-S128"
target triple = "x86_64-pc-linux-gnu"

%struct.nameData = type { [64 x i8] }
%struct.RelationData = type { %struct.RelFileLocator, ptr, i32, i32, i8, i8, i8, i8, i8, i32, i32, i32, i32, ptr, ptr, i32, %struct.LockInfoData, ptr, ptr, ptr, ptr, ptr, i8, ptr, ptr, ptr, ptr, ptr, ptr, i32, ptr, i8, ptr, ptr, i32, i8, i32, ptr, i8, ptr, ptr, ptr, ptr, ptr, ptr, ptr, i32, ptr, ptr, ptr, ptr, ptr, ptr, ptr, ptr, ptr, ptr, ptr, ptr, ptr, ptr, ptr, ptr, ptr, ptr, ptr, i32, i8, ptr }
%struct.RelFileLocator = type { i32, i32, i32 }
%struct.LockInfoData = type { %struct.LockRelId }
%struct.LockRelId = type { i32, i32 }
%struct.FormData_pg_class = type { i32, %struct.nameData, i32, i32, i32, i32, i32, i32, i32, i32, float, i32, i32, i8, i8, i8, i8, i16, i16, i8, i8, i8, i8, i8, i8, i8, i8, i32, i32, i32 }
%struct.HeapTupleData = type { i32, %struct.ItemPointerData, i32, ptr }
%struct.ItemPointerData = type { %struct.BlockIdData, i16 }
%struct.BlockIdData = type { i16, i16 }
%struct.HeapTupleHeaderData = type { %union.anon, %struct.ItemPointerData, i16, i16, i8, [0 x i8] }
%union.anon = type { %struct.HeapTupleFields }
%struct.HeapTupleFields = type { i32, i32, %union.anon.0 }
%union.anon.0 = type { i32 }
%struct.ScanKeyData = type { i32, i16, i16, i32, i32, %struct.FmgrInfo, i64 }
%struct.FmgrInfo = type { ptr, i32, i16, i8, i8, i8, ptr, ptr, ptr }
%struct.FormData_pg_constraint = type { i32, %struct.nameData, i32, i8, i8, i8, i8, i8, i32, i32, i32, i32, i32, i8, i8, i8, i8, i16, i8, i8 }
%struct.ForeignKeyCacheInfo = type { i32, i32, i32, i32, i32, [32 x i16], [32 x i16], [32 x i32] }
%struct.Node = type { i32 }

@CacheMemoryContext = external global ptr, align 8
@CurrentMemoryContext = external global ptr, align 8

; Function Attrs: inlinehint nounwind uwtable
define internal ptr @MemoryContextSwitchTo(ptr noundef %0) #3 {
  %2 = alloca ptr, align 8
  %3 = alloca ptr, align 8
  store ptr %0, ptr %2, align 8
  call void @llvm.lifetime.start.p0(i64 8, ptr %3) #11
  %4 = load ptr, ptr @CurrentMemoryContext, align 8
  store ptr %4, ptr %3, align 8
  %5 = load ptr, ptr %2, align 8
  store ptr %5, ptr @CurrentMemoryContext, align 8
  %6 = load ptr, ptr %3, align 8
  call void @llvm.lifetime.end.p0(i64 8, ptr %3) #11
  ret ptr %6
}

; Function Attrs: inlinehint nounwind uwtable
define internal ptr @newNode(i64 noundef %0, i32 noundef %1) #3 {
  %3 = alloca i64, align 8
  %4 = alloca i32, align 4
  %5 = alloca ptr, align 8
  store i64 %0, ptr %3, align 8
  store i32 %1, ptr %4, align 4
  call void @llvm.lifetime.start.p0(i64 8, ptr %5) #11
  %6 = load i64, ptr %3, align 8
  %7 = call ptr @palloc0(i64 noundef %6)
  store ptr %7, ptr %5, align 8
  %8 = load i32, ptr %4, align 4
  %9 = load ptr, ptr %5, align 8
  %10 = getelementptr inbounds nuw %struct.Node, ptr %9, i32 0, i32 0
  store i32 %8, ptr %10, align 4
  %11 = load ptr, ptr %5, align 8
  call void @llvm.lifetime.end.p0(i64 8, ptr %5) #11
  ret ptr %11
}

; Function Attrs: inlinehint nounwind uwtable
define internal ptr @GETSTRUCT(ptr noundef %0) #3 {
  %2 = alloca ptr, align 8
  store ptr %0, ptr %2, align 8
  %3 = load ptr, ptr %2, align 8
  %4 = getelementptr inbounds nuw %struct.HeapTupleData, ptr %3, i32 0, i32 3
  %5 = load ptr, ptr %4, align 8
  %6 = load ptr, ptr %2, align 8
  %7 = getelementptr inbounds nuw %struct.HeapTupleData, ptr %6, i32 0, i32 3
  %8 = load ptr, ptr %7, align 8
  %9 = getelementptr inbounds nuw %struct.HeapTupleHeaderData, ptr %8, i32 0, i32 4
  %10 = load i8, ptr %9, align 2
  %11 = zext i8 %10 to i32
  %12 = sext i32 %11 to i64
  %13 = getelementptr inbounds i8, ptr %5, i64 %12
  ret ptr %13
}

; Function Attrs: inlinehint nounwind uwtable
define internal i64 @ObjectIdGetDatum(i32 noundef %0) #3 {
  %2 = alloca i32, align 4
  store i32 %0, ptr %2, align 4
  %3 = load i32, ptr %2, align 4
  %4 = zext i32 %3 to i64
  ret i64 %4
}

; Function Attrs: nounwind uwtable
define dso_local ptr @RelationGetFKeyList(ptr noundef %0) #0 {
  %2 = alloca ptr, align 8
  %3 = alloca ptr, align 8
  %4 = alloca ptr, align 8
  %5 = alloca ptr, align 8
  %6 = alloca ptr, align 8
  %7 = alloca %struct.ScanKeyData, align 8
  %8 = alloca ptr, align 8
  %9 = alloca ptr, align 8
  %10 = alloca ptr, align 8
  %11 = alloca i32, align 4
  %12 = alloca ptr, align 8
  %13 = alloca ptr, align 8
  store ptr %0, ptr %3, align 8
  call void @llvm.lifetime.start.p0(i64 8, ptr %4) #11
  call void @llvm.lifetime.start.p0(i64 8, ptr %5) #11
  call void @llvm.lifetime.start.p0(i64 8, ptr %6) #11
  call void @llvm.lifetime.start.p0(i64 72, ptr %7) #11
  call void @llvm.lifetime.start.p0(i64 8, ptr %8) #11
  call void @llvm.lifetime.start.p0(i64 8, ptr %9) #11
  call void @llvm.lifetime.start.p0(i64 8, ptr %10) #11
  %14 = load ptr, ptr %3, align 8
  %15 = getelementptr inbounds nuw %struct.RelationData, ptr %14, i32 0, i32 22
  %16 = load i8, ptr %15, align 8, !range !4, !noundef !5
  %17 = trunc i8 %16 to i1
  br i1 %17, label %18, label %22

18:                                               ; preds = %1
  %19 = load ptr, ptr %3, align 8
  %20 = getelementptr inbounds nuw %struct.RelationData, ptr %19, i32 0, i32 21
  %21 = load ptr, ptr %20, align 8
  store ptr %21, ptr %2, align 8
  store i32 1, ptr %11, align 4
  br label %112

22:                                               ; preds = %1
  %23 = load ptr, ptr %3, align 8
  %24 = getelementptr inbounds nuw %struct.RelationData, ptr %23, i32 0, i32 13
  %25 = load ptr, ptr %24, align 8
  %26 = getelementptr inbounds nuw %struct.FormData_pg_class, ptr %25, i32 0, i32 20
  %27 = load i8, ptr %26, align 1, !range !4, !noundef !5
  %28 = trunc i8 %27 to i1
  br i1 %28, label %38, label %29

29:                                               ; preds = %22
  %30 = load ptr, ptr %3, align 8
  %31 = getelementptr inbounds nuw %struct.RelationData, ptr %30, i32 0, i32 13
  %32 = load ptr, ptr %31, align 8
  %33 = getelementptr inbounds nuw %struct.FormData_pg_class, ptr %32, i32 0, i32 16
  %34 = load i8, ptr %33, align 1
  %35 = sext i8 %34 to i32
  %36 = icmp ne i32 %35, 112
  br i1 %36, label %37, label %38

37:                                               ; preds = %29
  store ptr null, ptr %2, align 8
  store i32 1, ptr %11, align 4
  br label %112

38:                                               ; preds = %29, %22
  store ptr null, ptr %4, align 8
  %39 = load ptr, ptr %3, align 8
  %40 = getelementptr inbounds nuw %struct.RelationData, ptr %39, i32 0, i32 15
  %41 = load i32, ptr %40, align 8
  %42 = call i64 @ObjectIdGetDatum(i32 noundef %41)
  call void @ScanKeyInit(ptr noundef %7, i16 noundef signext 9, i16 noundef zeroext 3, i32 noundef 184, i64 noundef %42)
  %43 = call ptr @table_open(i32 noundef 2606, i32 noundef 1)
  store ptr %43, ptr %5, align 8
  %44 = load ptr, ptr %5, align 8
  %45 = call ptr @systable_beginscan(ptr noundef %44, i32 noundef 2665, i1 noundef zeroext true, ptr noundef null, i32 noundef 1, ptr noundef %7)
  store ptr %45, ptr %6, align 8
  br label %46

46:                                               ; preds = %93, %91, %38
  %47 = load ptr, ptr %6, align 8
  %48 = call ptr @systable_getnext(ptr noundef %47)
  store ptr %48, ptr %8, align 8
  %49 = icmp ne ptr %48, null
  br i1 %49, label %50, label %94

50:                                               ; preds = %46
  call void @llvm.lifetime.start.p0(i64 8, ptr %12) #11
  %51 = load ptr, ptr %8, align 8
  %52 = call ptr @GETSTRUCT(ptr noundef %51)
  store ptr %52, ptr %12, align 8
  call void @llvm.lifetime.start.p0(i64 8, ptr %13) #11
  %53 = load ptr, ptr %12, align 8
  %54 = getelementptr inbounds nuw %struct.FormData_pg_constraint, ptr %53, i32 0, i32 3
  %55 = load i8, ptr %54, align 4
  %56 = sext i8 %55 to i32
  %57 = icmp ne i32 %56, 102
  br i1 %57, label %58, label %59

58:                                               ; preds = %50
  store i32 2, ptr %11, align 4
  br label %91, !llvm.loop !31

59:                                               ; preds = %50
  %60 = call ptr @newNode(i64 noundef 276, i32 noundef 469)
  store ptr %60, ptr %13, align 8
  %61 = load ptr, ptr %12, align 8
  %62 = getelementptr inbounds nuw %struct.FormData_pg_constraint, ptr %61, i32 0, i32 0
  %63 = load i32, ptr %62, align 4
  %64 = load ptr, ptr %13, align 8
  %65 = getelementptr inbounds nuw %struct.ForeignKeyCacheInfo, ptr %64, i32 0, i32 1
  store i32 %63, ptr %65, align 4
  %66 = load ptr, ptr %12, align 8
  %67 = getelementptr inbounds nuw %struct.FormData_pg_constraint, ptr %66, i32 0, i32 8
  %68 = load i32, ptr %67, align 4
  %69 = load ptr, ptr %13, align 8
  %70 = getelementptr inbounds nuw %struct.ForeignKeyCacheInfo, ptr %69, i32 0, i32 2
  store i32 %68, ptr %70, align 4
  %71 = load ptr, ptr %12, align 8
  %72 = getelementptr inbounds nuw %struct.FormData_pg_constraint, ptr %71, i32 0, i32 12
  %73 = load i32, ptr %72, align 4
  %74 = load ptr, ptr %13, align 8
  %75 = getelementptr inbounds nuw %struct.ForeignKeyCacheInfo, ptr %74, i32 0, i32 3
  store i32 %73, ptr %75, align 4
  %76 = load ptr, ptr %8, align 8
  %77 = load ptr, ptr %13, align 8
  %78 = getelementptr inbounds nuw %struct.ForeignKeyCacheInfo, ptr %77, i32 0, i32 4
  %79 = load ptr, ptr %13, align 8
  %80 = getelementptr inbounds nuw %struct.ForeignKeyCacheInfo, ptr %79, i32 0, i32 5
  %81 = getelementptr inbounds [32 x i16], ptr %80, i64 0, i64 0
  %82 = load ptr, ptr %13, align 8
  %83 = getelementptr inbounds nuw %struct.ForeignKeyCacheInfo, ptr %82, i32 0, i32 6
  %84 = getelementptr inbounds [32 x i16], ptr %83, i64 0, i64 0
  %85 = load ptr, ptr %13, align 8
  %86 = getelementptr inbounds nuw %struct.ForeignKeyCacheInfo, ptr %85, i32 0, i32 7
  %87 = getelementptr inbounds [32 x i32], ptr %86, i64 0, i64 0
  call void @DeconstructFkConstraintRow(ptr noundef %76, ptr noundef %78, ptr noundef %81, ptr noundef %84, ptr noundef %87, ptr noundef null, ptr noundef null, ptr noundef null, ptr noundef null)
  %88 = load ptr, ptr %4, align 8
  %89 = load ptr, ptr %13, align 8
  %90 = call ptr @lappend(ptr noundef %88, ptr noundef %89)
  store ptr %90, ptr %4, align 8
  store i32 0, ptr %11, align 4
  br label %91

91:                                               ; preds = %59, %58
  call void @llvm.lifetime.end.p0(i64 8, ptr %13) #11
  call void @llvm.lifetime.end.p0(i64 8, ptr %12) #11
  %92 = load i32, ptr %11, align 4
  switch i32 %92, label %114 [
    i32 0, label %93
    i32 2, label %46
  ]

93:                                               ; preds = %91
  br label %46, !llvm.loop !31

94:                                               ; preds = %46
  %95 = load ptr, ptr %6, align 8
  call void @systable_endscan(ptr noundef %95)
  %96 = load ptr, ptr %5, align 8
  call void @table_close(ptr noundef %96, i32 noundef 1)
  %97 = load ptr, ptr @CacheMemoryContext, align 8
  %98 = call ptr @MemoryContextSwitchTo(ptr noundef %97)
  store ptr %98, ptr %10, align 8
  %99 = load ptr, ptr %3, align 8
  %100 = getelementptr inbounds nuw %struct.RelationData, ptr %99, i32 0, i32 21
  %101 = load ptr, ptr %100, align 8
  store ptr %101, ptr %9, align 8
  %102 = load ptr, ptr %4, align 8
  %103 = call ptr @copyObjectImpl(ptr noundef %102)
  %104 = load ptr, ptr %3, align 8
  %105 = getelementptr inbounds nuw %struct.RelationData, ptr %104, i32 0, i32 21
  store ptr %103, ptr %105, align 8
  %106 = load ptr, ptr %3, align 8
  %107 = getelementptr inbounds nuw %struct.RelationData, ptr %106, i32 0, i32 22
  store i8 1, ptr %107, align 8
  %108 = load ptr, ptr %10, align 8
  %109 = call ptr @MemoryContextSwitchTo(ptr noundef %108)
  %110 = load ptr, ptr %9, align 8
  call void @list_free_deep(ptr noundef %110)
  %111 = load ptr, ptr %4, align 8
  store ptr %111, ptr %2, align 8
  store i32 1, ptr %11, align 4
  br label %112

112:                                              ; preds = %94, %37, %18
  call void @llvm.lifetime.end.p0(i64 8, ptr %10) #11
  call void @llvm.lifetime.end.p0(i64 8, ptr %9) #11
  call void @llvm.lifetime.end.p0(i64 8, ptr %8) #11
  call void @llvm.lifetime.end.p0(i64 72, ptr %7) #11
  call void @llvm.lifetime.end.p0(i64 8, ptr %6) #11
  call void @llvm.lifetime.end.p0(i64 8, ptr %5) #11
  call void @llvm.lifetime.end.p0(i64 8, ptr %4) #11
  %113 = load ptr, ptr %2, align 8
  ret ptr %113

114:                                              ; preds = %91
  unreachable
}