; Function Attrs: nounwind uwtable
define dso_local ptr @RelationGetFKeyList(ptr noundef captures(none) %0) local_unnamed_addr #0 {
  %2 = alloca %struct.ScanKeyData, align 8
  call void @llvm.lifetime.start.p0(i64 72, ptr nonnull %2) #13
  %3 = getelementptr inbounds nuw i8, ptr %0, i64 128
  %4 = load i8, ptr %3, align 8, !range !6, !noundef !7
  %5 = trunc nuw i8 %4 to i1
  br i1 %5, label %6, label %9

6:                                                ; preds = %1
  %7 = getelementptr inbounds nuw i8, ptr %0, i64 120
  %8 = load ptr, ptr %7, align 8
  br label %55

9:                                                ; preds = %1
  %10 = getelementptr inbounds nuw i8, ptr %0, i64 56
  %11 = load ptr, ptr %10, align 8
  %12 = getelementptr inbounds nuw i8, ptr %11, i64 121
  %13 = load i8, ptr %12, align 1, !range !6, !noundef !7
  %14 = trunc nuw i8 %13 to i1
  br i1 %14, label %18, label %15

15:                                               ; preds = %9
  %16 = getelementptr inbounds nuw i8, ptr %11, i64 115
  %17 = load i8, ptr %16, align 1
  %.not = icmp eq i8 %17, 112
  br i1 %.not, label %18, label %55

18:                                               ; preds = %15, %9
  %19 = getelementptr inbounds nuw i8, ptr %0, i64 72
  %20 = load i32, ptr %19, align 8
  %21 = zext i32 %20 to i64
  call void @ScanKeyInit(ptr noundef nonnull %2, i16 noundef signext 9, i16 noundef zeroext 3, i32 noundef 184, i64 noundef %21) #13
  %22 = call ptr @table_open(i32 noundef 2606, i32 noundef 1) #13
  %23 = call ptr @systable_beginscan(ptr noundef %22, i32 noundef 2665, i1 noundef zeroext true, ptr noundef null, i32 noundef 1, ptr noundef nonnull %2) #13
  %24 = call ptr @systable_getnext(ptr noundef %23) #13
  %.not3436 = icmp eq ptr %24, null
  br i1 %.not3436, label %._crit_edge, label %.lr.ph

.lr.ph:                                           ; preds = %18, %48
  %25 = phi ptr [ %49, %48 ], [ %24, %18 ]
  %.03237 = phi ptr [ %.1, %48 ], [ null, %18 ]
  %26 = getelementptr i8, ptr %25, i64 16
  %.val = load ptr, ptr %26, align 8
  %27 = getelementptr inbounds nuw i8, ptr %.val, i64 22
  %28 = load i8, ptr %27, align 2
  %29 = zext i8 %28 to i64
  %30 = getelementptr inbounds nuw i8, ptr %.val, i64 %29
  %31 = getelementptr inbounds nuw i8, ptr %30, i64 72
  %32 = load i8, ptr %31, align 4
  %.not35 = icmp eq i8 %32, 102
  br i1 %.not35, label %33, label %48, !llvm.loop !37

33:                                               ; preds = %.lr.ph
  %34 = call noundef ptr @palloc0(i64 noundef 276) #13
  store i32 469, ptr %34, align 4
  %35 = load i32, ptr %30, align 4
  %36 = getelementptr inbounds nuw i8, ptr %34, i64 4
  store i32 %35, ptr %36, align 4
  %37 = getelementptr inbounds nuw i8, ptr %30, i64 80
  %38 = load i32, ptr %37, align 4
  %39 = getelementptr inbounds nuw i8, ptr %34, i64 8
  store i32 %38, ptr %39, align 4
  %40 = getelementptr inbounds nuw i8, ptr %30, i64 96
  %41 = load i32, ptr %40, align 4
  %42 = getelementptr inbounds nuw i8, ptr %34, i64 12
  store i32 %41, ptr %42, align 4
  %43 = getelementptr inbounds nuw i8, ptr %34, i64 16
  %44 = getelementptr inbounds nuw i8, ptr %34, i64 20
  %45 = getelementptr inbounds nuw i8, ptr %34, i64 84
  %46 = getelementptr inbounds nuw i8, ptr %34, i64 148
  call void @DeconstructFkConstraintRow(ptr noundef nonnull %25, ptr noundef nonnull %43, ptr noundef nonnull %44, ptr noundef nonnull %45, ptr noundef nonnull %46, ptr noundef null, ptr noundef null, ptr noundef null, ptr noundef null) #13
  %47 = call ptr @lappend(ptr noundef %.03237, ptr noundef nonnull %34) #13
  br label %48

48:                                               ; preds = %.lr.ph, %33
  %.1 = phi ptr [ %47, %33 ], [ %.03237, %.lr.ph ]
  %49 = call ptr @systable_getnext(ptr noundef %23) #13
  %.not34 = icmp eq ptr %49, null
  br i1 %.not34, label %._crit_edge, label %.lr.ph

._crit_edge:                                      ; preds = %48, %18
  %.032.lcssa = phi ptr [ null, %18 ], [ %.1, %48 ]
  call void @systable_endscan(ptr noundef %23) #13
  call void @table_close(ptr noundef %22, i32 noundef 1) #13
  %50 = load ptr, ptr @CacheMemoryContext, align 8
  %51 = load ptr, ptr @CurrentMemoryContext, align 8
  store ptr %50, ptr @CurrentMemoryContext, align 8
  %52 = getelementptr inbounds nuw i8, ptr %0, i64 120
  %53 = load ptr, ptr %52, align 8
  %54 = call ptr @copyObjectImpl(ptr noundef %.032.lcssa) #13
  store ptr %54, ptr %52, align 8
  store i8 1, ptr %3, align 8
  store ptr %51, ptr @CurrentMemoryContext, align 8
  call void @list_free_deep(ptr noundef %53) #13
  br label %55

55:                                               ; preds = %15, %._crit_edge, %6
  %.0 = phi ptr [ %8, %6 ], [ %.032.lcssa, %._crit_edge ], [ null, %15 ]
  call void @llvm.lifetime.end.p0(i64 72, ptr nonnull %2) #13
  ret ptr %.0
}